; ModuleID = '5/1059.c'
source_filename = "5/1059.c"
target datalayout = "e-m:e-p270:32:32-p271:32:32-p272:64:64-i64:64-f80:128-n8:16:32:64-S128"
target triple = "x86_64-pc-linux-gnu"

@.str = private unnamed_addr constant [4 x i8] c"%lf\00", align 1
@.str.1 = private unnamed_addr constant [5 x i8] c"%s%s\00", align 1
@.str.2 = private unnamed_addr constant [6 x i8] c"error\00", align 1
@.str.3 = private unnamed_addr constant [4 x i8] c"yes\00", align 1
@.str.4 = private unnamed_addr constant [3 x i8] c"no\00", align 1

; Function Attrs: noinline nounwind uwtable
define dso_local i32 @main() #0 {
  %1 = alloca i32, align 4
  %2 = alloca i32, align 4
  %3 = alloca double, align 8
  %4 = alloca double, align 8
  %5 = alloca double, align 8
  %6 = alloca double, align 8
  %7 = alloca double, align 8
  %8 = alloca double, align 8
  %9 = alloca [501 x i8], align 16
  %10 = alloca [501 x i8], align 16
  store i32 0, i32* %1, align 4
  store double 0.000000e+00, double* %6, align 8
  store double 0.000000e+00, double* %7, align 8
  %11 = call i32 (i8*, ...) @__isoc99_scanf(i8* getelementptr inbounds ([4 x i8], [4 x i8]* @.str, i64 0, i64 0), double* %3)
  %12 = call i32 (i8*, ...) @__isoc99_scanf(i8* getelementptr inbounds ([5 x i8], [5 x i8]* @.str.1, i64 0, i64 0), [501 x i8]* %9, [501 x i8]* %10)
  %13 = getelementptr inbounds [501 x i8], [501 x i8]* %9, i64 0, i64 0
  %14 = call i64 @strlen(i8* %13) #3
  %15 = uitofp i64 %14 to double
  store double %15, double* %4, align 8
  %16 = getelementptr inbounds [501 x i8], [501 x i8]* %10, i64 0, i64 0
  %17 = call i64 @strlen(i8* %16) #3
  %18 = uitofp i64 %17 to double
  store double %18, double* %5, align 8
  %19 = load double, double* %4, align 8
  %20 = load double, double* %5, align 8
  %21 = fcmp une double %19, %20
  br i1 %21, label %22, label %24

22:                                               ; preds = %0
  %23 = call i32 (i8*, ...) @printf(i8* getelementptr inbounds ([6 x i8], [6 x i8]* @.str.2, i64 0, i64 0))
  br label %24

24:                                               ; preds = %22, %0
  %25 = load double, double* %4, align 8
  %26 = load double, double* %5, align 8
  %27 = fcmp oeq double %25, %26
  br i1 %27, label %28, label %135

28:                                               ; preds = %24
  store i32 0, i32* %2, align 4
  br label %29

29:                                               ; preds = %109, %28
  %30 = load i32, i32* %2, align 4
  %31 = sitofp i32 %30 to double
  %32 = load double, double* %4, align 8
  %33 = fcmp olt double %31, %32
  br i1 %33, label %34, label %112

34:                                               ; preds = %29
  %35 = load i32, i32* %2, align 4
  %36 = sext i32 %35 to i64
  %37 = getelementptr inbounds [501 x i8], [501 x i8]* %9, i64 0, i64 %36
  %38 = load i8, i8* %37, align 1
  %39 = sext i8 %38 to i32
  %40 = icmp eq i32 %39, 65
  br i1 %40, label %62, label %41

41:                                               ; preds = %34
  %42 = load i32, i32* %2, align 4
  %43 = sext i32 %42 to i64
  %44 = getelementptr inbounds [501 x i8], [501 x i8]* %9, i64 0, i64 %43
  %45 = load i8, i8* %44, align 1
  %46 = sext i8 %45 to i32
  %47 = icmp eq i32 %46, 84
  br i1 %47, label %62, label %48

48:                                               ; preds = %41
  %49 = load i32, i32* %2, align 4
  %50 = sext i32 %49 to i64
  %51 = getelementptr inbounds [501 x i8], [501 x i8]* %9, i64 0, i64 %50
  %52 = load i8, i8* %51, align 1
  %53 = sext i8 %52 to i32
  %54 = icmp eq i32 %53, 67
  br i1 %54, label %62, label %55

55:                                               ; preds = %48
  %56 = load i32, i32* %2, align 4
  %57 = sext i32 %56 to i64
  %58 = getelementptr inbounds [501 x i8], [501 x i8]* %9, i64 0, i64 %57
  %59 = load i8, i8* %58, align 1
  %60 = sext i8 %59 to i32
  %61 = icmp eq i32 %60, 71
  br i1 %61, label %62, label %108

62:                                               ; preds = %55, %48, %41, %34
  %63 = load i32, i32* %2, align 4
  %64 = sext i32 %63 to i64
  %65 = getelementptr inbounds [501 x i8], [501 x i8]* %10, i64 0, i64 %64
  %66 = load i8, i8* %65, align 1
  %67 = sext i8 %66 to i32
  %68 = icmp eq i32 %67, 65
  br i1 %68, label %90, label %69

69:                                               ; preds = %62
  %70 = load i32, i32* %2, align 4
  %71 = sext i32 %70 to i64
  %72 = getelementptr inbounds [501 x i8], [501 x i8]* %10, i64 0, i64 %71
  %73 = load i8, i8* %72, align 1
  %74 = sext i8 %73 to i32
  %75 = icmp eq i32 %74, 84
  br i1 %75, label %90, label %76

76:                                               ; preds = %69
  %77 = load i32, i32* %2, align 4
  %78 = sext i32 %77 to i64
  %79 = getelementptr inbounds [501 x i8], [501 x i8]* %10, i64 0, i64 %78
  %80 = load i8, i8* %79, align 1
  %81 = sext i8 %80 to i32
  %82 = icmp eq i32 %81, 67
  br i1 %82, label %90, label %83

83:                                               ; preds = %76
  %84 = load i32, i32* %2, align 4
  %85 = sext i32 %84 to i64
  %86 = getelementptr inbounds [501 x i8], [501 x i8]* %10, i64 0, i64 %85
  %87 = load i8, i8* %86, align 1
  %88 = sext i8 %87 to i32
  %89 = icmp eq i32 %88, 71
  br i1 %89, label %90, label %108

90:                                               ; preds = %83, %76, %69, %62
  %91 = load double, double* %7, align 8
  %92 = fadd double %91, 1.000000e+00
  store double %92, double* %7, align 8
  %93 = load i32, i32* %2, align 4
  %94 = sext i32 %93 to i64
  %95 = getelementptr inbounds [501 x i8], [501 x i8]* %9, i64 0, i64 %94
  %96 = load i8, i8* %95, align 1
  %97 = sext i8 %96 to i32
  %98 = load i32, i32* %2, align 4
  %99 = sext i32 %98 to i64
  %100 = getelementptr inbounds [501 x i8], [501 x i8]* %10, i64 0, i64 %99
  %101 = load i8, i8* %100, align 1
  %102 = sext i8 %101 to i32
  %103 = icmp eq i32 %97, %102
  br i1 %103, label %104, label %107

104:                                              ; preds = %90
  %105 = load double, double* %6, align 8
  %106 = fadd double %105, 1.000000e+00
  store double %106, double* %6, align 8
  br label %107

107:                                              ; preds = %104, %90
  br label %108

108:                                              ; preds = %107, %83, %55
  br label %109

109:                                              ; preds = %108
  %110 = load i32, i32* %2, align 4
  %111 = add nsw i32 %110, 1
  store i32 %111, i32* %2, align 4
  br label %29

112:                                              ; preds = %29
  %113 = load double, double* %7, align 8
  %114 = load double, double* %4, align 8
  %115 = fcmp oeq double %113, %114
  br i1 %115, label %116, label %128

116:                                              ; preds = %112
  %117 = load double, double* %6, align 8
  %118 = load double, double* %4, align 8
  %119 = fdiv double %117, %118
  store double %119, double* %8, align 8
  %120 = load double, double* %8, align 8
  %121 = load double, double* %3, align 8
  %122 = fcmp ogt double %120, %121
  br i1 %122, label %123, label %125

123:                                              ; preds = %116
  %124 = call i32 (i8*, ...) @printf(i8* getelementptr inbounds ([4 x i8], [4 x i8]* @.str.3, i64 0, i64 0))
  br label %127

125:                                              ; preds = %116
  %126 = call i32 (i8*, ...) @printf(i8* getelementptr inbounds ([3 x i8], [3 x i8]* @.str.4, i64 0, i64 0))
  br label %127

127:                                              ; preds = %125, %123
  br label %128

128:                                              ; preds = %127, %112
  %129 = load double, double* %7, align 8
  %130 = load double, double* %4, align 8
  %131 = fcmp une double %129, %130
  br i1 %131, label %132, label %134

132:                                              ; preds = %128
  %133 = call i32 (i8*, ...) @printf(i8* getelementptr inbounds ([6 x i8], [6 x i8]* @.str.2, i64 0, i64 0))
  br label %134

134:                                              ; preds = %132, %128
  br label %135

135:                                              ; preds = %134, %24
  ret i32 0
}

declare dso_local i32 @__isoc99_scanf(i8*, ...) #1

; Function Attrs: nounwind readonly
declare dso_local i64 @strlen(i8*) #2

declare dso_local i32 @printf(i8*, ...) #1


!llvm.module.flags = !{!0}
!llvm.ident = !{!1}

!0 = !{i32 1, !"wchar_size", i32 4}
!1 = !{!"clang version 10.0.0-4ubuntu1 "}
